; Function Attrs: mustprogress nounwind uwtable
define hidden void @_ZN13TemplateTable6astoreEv() local_unnamed_addr #0 align 2 {
  %1 = alloca %class.Address, align 16
  %2 = alloca %class.Address, align 16
  tail call void @_ZN13TemplateTable10transitionE8TosStateS0_(i32 noundef 9, i32 noundef 9) #8
  %3 = load ptr, ptr @_ZN13TemplateTable5_masmE, align 8
  %4 = load i8, ptr @PrintInterpreter, align 1
  %5 = trunc i8 %4 to i1
  br i1 %5, label %6, label %_ZN12Disassembler4hookI25InterpreterMacroAssemblerEEPT_PKciS3_.exit

6:                                                ; preds = %0
  tail call void @_ZN12Disassembler5_hookEPKciP14MacroAssembler(ptr noundef nonnull @.str, i32 noundef 1022, ptr noundef %3) #8
  br label %_ZN12Disassembler4hookI25InterpreterMacroAssemblerEEPT_PKciS3_.exit

_ZN12Disassembler4hookI25InterpreterMacroAssemblerEEPT_PKciS3_.exit: ; preds = %0, %6
  tail call void @_ZN25InterpreterMacroAssembler7pop_ptrE8Register(ptr noundef nonnull align 8 dereferenceable(48) %3, i32 0) #8
  call void @llvm.lifetime.start.p0(i64 64, ptr nonnull %1)
  %7 = load ptr, ptr @_ZN13TemplateTable5_masmE, align 8
  %8 = load i8, ptr @PrintInterpreter, align 1
  %9 = trunc i8 %8 to i1
  br i1 %9, label %10, label %_ZN12Disassembler4hookI25InterpreterMacroAssemblerEEPT_PKciS3_.exit.i

10:                                               ; preds = %_ZN12Disassembler4hookI25InterpreterMacroAssemblerEEPT_PKciS3_.exit
  tail call void @_ZN12Disassembler5_hookEPKciP14MacroAssembler(ptr noundef nonnull @.str, i32 noundef 624, ptr noundef %7) #8
  br label %_ZN12Disassembler4hookI25InterpreterMacroAssemblerEEPT_PKciS3_.exit.i

_ZN12Disassembler4hookI25InterpreterMacroAssemblerEEPT_PKciS3_.exit.i: ; preds = %10, %_ZN12Disassembler4hookI25InterpreterMacroAssemblerEEPT_PKciS3_.exit
  store <4 x i32> <i32 13, i32 -1, i32 -1, i32 -1>, ptr %1, align 16, !alias.scope !177
  %11 = getelementptr inbounds i8, ptr %1, i64 16
  store i32 1, ptr %11, align 16, !alias.scope !177
  %12 = getelementptr inbounds i8, ptr %1, i64 20
  store i8 0, ptr %12, align 4, !alias.scope !177
  %13 = getelementptr inbounds i8, ptr %1, i64 24
  store ptr getelementptr inbounds inrange(-16, 72) (i8, ptr @_ZTV10Relocation, i64 16), ptr %13, align 8, !alias.scope !177
  %14 = getelementptr inbounds i8, ptr %1, i64 32
  store ptr null, ptr %14, align 16, !alias.scope !177
  %15 = getelementptr inbounds i8, ptr %1, i64 40
  store i32 0, ptr %15, align 8, !alias.scope !177
  %16 = call noundef i32 @_ZN14MacroAssembler18load_unsigned_byteE8Register7Address(ptr noundef nonnull align 8 dereferenceable(40) %7, i32 3, ptr noundef nonnull %1) #8
  %17 = load ptr, ptr @_ZN13TemplateTable5_masmE, align 8
  %18 = load i8, ptr @PrintInterpreter, align 1
  %19 = trunc i8 %18 to i1
  br i1 %19, label %20, label %_ZN13TemplateTable12locals_indexE8Registeri.exit

20:                                               ; preds = %_ZN12Disassembler4hookI25InterpreterMacroAssemblerEEPT_PKciS3_.exit.i
  call void @_ZN12Disassembler5_hookEPKciP14MacroAssembler(ptr noundef nonnull @.str, i32 noundef 625, ptr noundef %17) #8
  br label %_ZN13TemplateTable12locals_indexE8Registeri.exit

_ZN13TemplateTable12locals_indexE8Registeri.exit: ; preds = %_ZN12Disassembler4hookI25InterpreterMacroAssemblerEEPT_PKciS3_.exit.i, %20
  call void @_ZN9Assembler4negqE8Register(ptr noundef nonnull align 8 dereferenceable(40) %17, i32 3) #8
  call void @llvm.lifetime.end.p0(i64 64, ptr nonnull %1)
  %21 = load ptr, ptr @_ZN13TemplateTable5_masmE, align 8
  %22 = load i8, ptr @PrintInterpreter, align 1
  %23 = trunc i8 %22 to i1
  br i1 %23, label %24, label %_ZN12Disassembler4hookI25InterpreterMacroAssemblerEEPT_PKciS3_.exit4

24:                                               ; preds = %_ZN13TemplateTable12locals_indexE8Registeri.exit
  call void @_ZN12Disassembler5_hookEPKciP14MacroAssembler(ptr noundef nonnull @.str, i32 noundef 1024, ptr noundef %21) #8
  br label %_ZN12Disassembler4hookI25InterpreterMacroAssemblerEEPT_PKciS3_.exit4

_ZN12Disassembler4hookI25InterpreterMacroAssemblerEEPT_PKciS3_.exit4: ; preds = %_ZN13TemplateTable12locals_indexE8Registeri.exit, %24
  store <4 x i32> <i32 14, i32 3, i32 -1, i32 3>, ptr %2, align 16, !alias.scope !180
  %25 = getelementptr inbounds i8, ptr %2, i64 16
  store i32 0, ptr %25, align 16, !alias.scope !180
  %26 = getelementptr inbounds i8, ptr %2, i64 20
  store i8 0, ptr %26, align 4, !alias.scope !180
  %27 = getelementptr inbounds i8, ptr %2, i64 24
  store ptr getelementptr inbounds inrange(-16, 72) (i8, ptr @_ZTV10Relocation, i64 16), ptr %27, align 8, !alias.scope !180
  %28 = getelementptr inbounds i8, ptr %2, i64 32
  store ptr null, ptr %28, align 16, !alias.scope !180
  %29 = getelementptr inbounds i8, ptr %2, i64 40
  store i32 0, ptr %29, align 8, !alias.scope !180
  call void @_ZN14MacroAssembler6movptrE7Address8Register(ptr noundef nonnull align 8 dereferenceable(40) %21, ptr noundef nonnull %2, i32 0) #8
  ret void
}